target datalayout = "e-m:e-p270:32:32-p271:32:32-p272:64:64-i64:64-i128:128-f80:128-n8:16:32:64-S128"
target triple = "x86_64-unknown-linux-gnu"

%struct.b2Vec2 = type { float, float }
%struct.b2JointUserData = type { i64 }
%class.b2PulleyJoint = type { %class.b2Joint, %struct.b2Vec2, %struct.b2Vec2, float, float, %struct.b2Vec2, %struct.b2Vec2, float, float, float, i32, i32, %struct.b2Vec2, %struct.b2Vec2, %struct.b2Vec2, %struct.b2Vec2, %struct.b2Vec2, %struct.b2Vec2, float, float, float, float, float }
%class.b2Joint = type { ptr, i32, ptr, ptr, %struct.b2JointEdge, %struct.b2JointEdge, ptr, ptr, i32, i8, i8, %struct.b2JointUserData }
%struct.b2JointEdge = type { ptr, ptr, ptr, ptr }

; Function Attrs: mustprogress nounwind uwtable
define linkonce_odr hidden void @_ZN6b2Vec2mIERKS_(ptr noundef nonnull align 4 dereferenceable(8) %this, ptr noundef nonnull align 4 dereferenceable(8) %v) #2 comdat align 2 {
entry:
  %this.addr = alloca ptr, align 8
  %v.addr = alloca ptr, align 8
  store ptr %this, ptr %this.addr, align 8
  store ptr %v, ptr %v.addr, align 8
  %this1 = load ptr, ptr %this.addr, align 8
  %0 = load ptr, ptr %v.addr, align 8
  %x = getelementptr inbounds %struct.b2Vec2, ptr %0, i32 0, i32 0
  %1 = load float, ptr %x, align 4
  %x2 = getelementptr inbounds %struct.b2Vec2, ptr %this1, i32 0, i32 0
  %2 = load float, ptr %x2, align 4
  %sub = fsub float %2, %1
  store float %sub, ptr %x2, align 4
  %3 = load ptr, ptr %v.addr, align 8
  %y = getelementptr inbounds %struct.b2Vec2, ptr %3, i32 0, i32 1
  %4 = load float, ptr %y, align 4
  %y3 = getelementptr inbounds %struct.b2Vec2, ptr %this1, i32 0, i32 1
  %5 = load float, ptr %y3, align 4
  %sub4 = fsub float %5, %4
  store float %sub4, ptr %y3, align 4
  ret void
}

; Function Attrs: mustprogress uwtable
define void @_ZN13b2PulleyJoint11ShiftOriginERK6b2Vec2(ptr noundef nonnull align 8 dereferenceable(256) %this, ptr noundef nonnull align 4 dereferenceable(8) %newOrigin) unnamed_addr #3 align 2 {
entry:
  %this.addr = alloca ptr, align 8
  %newOrigin.addr = alloca ptr, align 8
  store ptr %this, ptr %this.addr, align 8
  store ptr %newOrigin, ptr %newOrigin.addr, align 8
  %this1 = load ptr, ptr %this.addr, align 8
  %0 = load ptr, ptr %newOrigin.addr, align 8
  %m_groundAnchorA = getelementptr inbounds %class.b2PulleyJoint, ptr %this1, i32 0, i32 1
  call void @_ZN6b2Vec2mIERKS_(ptr noundef nonnull align 4 dereferenceable(8) %m_groundAnchorA, ptr noundef nonnull align 4 dereferenceable(8) %0)
  %1 = load ptr, ptr %newOrigin.addr, align 8
  %m_groundAnchorB = getelementptr inbounds %class.b2PulleyJoint, ptr %this1, i32 0, i32 2
  call void @_ZN6b2Vec2mIERKS_(ptr noundef nonnull align 4 dereferenceable(8) %m_groundAnchorB, ptr noundef nonnull align 4 dereferenceable(8) %1)
  ret void
}