; Function Attrs: mustprogress nofree norecurse nosync nounwind willreturn memory(argmem: readwrite) uwtable
define void @_ZN13b2PulleyJoint11ShiftOriginERK6b2Vec2(ptr nocapture noundef nonnull align 8 dereferenceable(256) %this, ptr nocapture noundef nonnull readonly align 4 dereferenceable(8) %newOrigin) unnamed_addr #10 align 2 {
entry:
  %m_groundAnchorA = getelementptr inbounds i8, ptr %this, i64 128
  %0 = load float, ptr %newOrigin, align 4
  %1 = load float, ptr %m_groundAnchorA, align 8
  %sub.i = fsub float %1, %0
  store float %sub.i, ptr %m_groundAnchorA, align 8
  %y.i = getelementptr inbounds i8, ptr %newOrigin, i64 4
  %2 = load float, ptr %y.i, align 4
  %y3.i = getelementptr inbounds i8, ptr %this, i64 132
  %3 = load float, ptr %y3.i, align 4
  %sub4.i = fsub float %3, %2
  store float %sub4.i, ptr %y3.i, align 4
  %m_groundAnchorB = getelementptr inbounds i8, ptr %this, i64 136
  %4 = load float, ptr %newOrigin, align 4
  %5 = load float, ptr %m_groundAnchorB, align 8
  %sub.i2 = fsub float %5, %4
  store float %sub.i2, ptr %m_groundAnchorB, align 8
  %6 = load float, ptr %y.i, align 4
  %y3.i4 = getelementptr inbounds i8, ptr %this, i64 140
  %7 = load float, ptr %y3.i4, align 4
  %sub4.i5 = fsub float %7, %6
  store float %sub4.i5, ptr %y3.i4, align 4
  ret void
}